target datalayout = "e-m:e-p270:32:32-p271:32:32-p272:64:64-i64:64-i128:128-f80:128-n8:16:32:64-S128"
target triple = "x86_64-pc-linux-gnu"

%class.Jipopt = type { %"class.Ipopt::TNLP.base", ptr, ptr, i32, i32, i32, i32, i32, ptr, ptr, ptr, ptr, ptr, ptr, ptr, ptr, ptr, i8, i8, %"class.Ipopt::SmartPtr", ptr, ptr, ptr, ptr, ptr, ptr, ptr, ptr, ptr, ptr, ptr }
%"class.Ipopt::TNLP.base" = type { %"class.Ipopt::ReferencedObject.base" }
%"class.Ipopt::ReferencedObject.base" = type <{ ptr, i32 }>
%"class.Ipopt::SmartPtr" = type { ptr }
%struct.JNIEnv_ = type { ptr }
%struct.JNINativeInterface_ = type { ptr, ptr, ptr, ptr, ptr, ptr, ptr, ptr, ptr, ptr, ptr, ptr, ptr, ptr, ptr, ptr, ptr, ptr, ptr, ptr, ptr, ptr, ptr, ptr, ptr, ptr, ptr, ptr, ptr, ptr, ptr, ptr, ptr, ptr, ptr, ptr, ptr, ptr, ptr, ptr, ptr, ptr, ptr, ptr, ptr, ptr, ptr, ptr, ptr, ptr, ptr, ptr, ptr, ptr, ptr, ptr, ptr, ptr, ptr, ptr, ptr, ptr, ptr, ptr, ptr, ptr, ptr, ptr, ptr, ptr, ptr, ptr, ptr, ptr, ptr, ptr, ptr, ptr, ptr, ptr, ptr, ptr, ptr, ptr, ptr, ptr, ptr, ptr, ptr, ptr, ptr, ptr, ptr, ptr, ptr, ptr, ptr, ptr, ptr, ptr, ptr, ptr, ptr, ptr, ptr, ptr, ptr, ptr, ptr, ptr, ptr, ptr, ptr, ptr, ptr, ptr, ptr, ptr, ptr, ptr, ptr, ptr, ptr, ptr, ptr, ptr, ptr, ptr, ptr, ptr, ptr, ptr, ptr, ptr, ptr, ptr, ptr, ptr, ptr, ptr, ptr, ptr, ptr, ptr, ptr, ptr, ptr, ptr, ptr, ptr, ptr, ptr, ptr, ptr, ptr, ptr, ptr, ptr, ptr, ptr, ptr, ptr, ptr, ptr, ptr, ptr, ptr, ptr, ptr, ptr, ptr, ptr, ptr, ptr, ptr, ptr, ptr, ptr, ptr, ptr, ptr, ptr, ptr, ptr, ptr, ptr, ptr, ptr, ptr, ptr, ptr, ptr, ptr, ptr, ptr, ptr, ptr, ptr, ptr, ptr, ptr, ptr, ptr, ptr, ptr, ptr, ptr, ptr, ptr, ptr, ptr, ptr, ptr, ptr, ptr, ptr, ptr, ptr, ptr, ptr, ptr, ptr, ptr, ptr, ptr, ptr, ptr, ptr, ptr, ptr, ptr, ptr, ptr, ptr }

; Function Attrs: mustprogress uwtable
define linkonce_odr void @_ZN7JNIEnv_20GetDoubleArrayRegionEP13_jdoubleArrayiiPd(ptr noundef nonnull align 8 dereferenceable(8) %0, ptr noundef %1, i32 noundef %2, i32 noundef %3, ptr noundef %4) #4 comdat align 2 {
  %6 = alloca ptr, align 8
  %7 = alloca ptr, align 8
  %8 = alloca i32, align 4
  %9 = alloca i32, align 4
  %10 = alloca ptr, align 8
  store ptr %0, ptr %6, align 8, !tbaa !8
  store ptr %1, ptr %7, align 8, !tbaa !101
  store i32 %2, ptr %8, align 4, !tbaa !12
  store i32 %3, ptr %9, align 4, !tbaa !12
  store ptr %4, ptr %10, align 8, !tbaa !99
  %11 = load ptr, ptr %6, align 8
  %12 = getelementptr inbounds nuw %struct.JNIEnv_, ptr %11, i32 0, i32 0
  %13 = load ptr, ptr %12, align 8, !tbaa !84
  %14 = getelementptr inbounds nuw %struct.JNINativeInterface_, ptr %13, i32 0, i32 206
  %15 = load ptr, ptr %14, align 8, !tbaa !106
  %16 = load ptr, ptr %7, align 8, !tbaa !101
  %17 = load i32, ptr %8, align 4, !tbaa !12
  %18 = load i32, ptr %9, align 4, !tbaa !12
  %19 = load ptr, ptr %10, align 8, !tbaa !99
  call void %15(ptr noundef %11, ptr noundef %16, i32 noundef %17, i32 noundef %18, ptr noundef %19)
  ret void
}

; Function Attrs: mustprogress uwtable
define linkonce_odr noundef ptr @_ZN7JNIEnv_14NewDoubleArrayEi(ptr noundef nonnull align 8 dereferenceable(8) %0, i32 noundef %1) #4 comdat align 2 {
  %3 = alloca ptr, align 8
  %4 = alloca i32, align 4
  store ptr %0, ptr %3, align 8, !tbaa !8
  store i32 %1, ptr %4, align 4, !tbaa !12
  %5 = load ptr, ptr %3, align 8
  %6 = getelementptr inbounds nuw %struct.JNIEnv_, ptr %5, i32 0, i32 0
  %7 = load ptr, ptr %6, align 8, !tbaa !84
  %8 = getelementptr inbounds nuw %struct.JNINativeInterface_, ptr %7, i32 0, i32 182
  %9 = load ptr, ptr %8, align 8, !tbaa !102
  %10 = load i32, ptr %4, align 4, !tbaa !12
  %11 = call noundef ptr %9(ptr noundef %5, i32 noundef %10)
  ret ptr %11
}

; Function Attrs: mustprogress uwtable
define noundef zeroext i1 @_ZN6Jipopt15get_bounds_infoEiPdS0_iS0_S0_(ptr noundef nonnull align 8 dereferenceable(232) %0, i32 noundef %1, ptr noundef %2, ptr noundef %3, i32 noundef %4, ptr noundef %5, ptr noundef %6) unnamed_addr #4 align 2 {
  %8 = alloca i1, align 1
  %9 = alloca ptr, align 8
  %10 = alloca i32, align 4
  %11 = alloca ptr, align 8
  %12 = alloca ptr, align 8
  %13 = alloca i32, align 4
  %14 = alloca ptr, align 8
  %15 = alloca ptr, align 8
  %16 = alloca ptr, align 8
  %17 = alloca ptr, align 8
  %18 = alloca ptr, align 8
  %19 = alloca ptr, align 8
  %20 = alloca i32, align 4
  store ptr %0, ptr %9, align 8, !tbaa !3
  store i32 %1, ptr %10, align 4, !tbaa !12
  store ptr %2, ptr %11, align 8, !tbaa !99
  store ptr %3, ptr %12, align 8, !tbaa !99
  store i32 %4, ptr %13, align 4, !tbaa !12
  store ptr %5, ptr %14, align 8, !tbaa !99
  store ptr %6, ptr %15, align 8, !tbaa !99
  %21 = load ptr, ptr %9, align 8
  call void @llvm.lifetime.start.p0(i64 8, ptr %16) #3
  store ptr null, ptr %16, align 8, !tbaa !101
  call void @llvm.lifetime.start.p0(i64 8, ptr %17) #3
  store ptr null, ptr %17, align 8, !tbaa !101
  call void @llvm.lifetime.start.p0(i64 8, ptr %18) #3
  store ptr null, ptr %18, align 8, !tbaa !101
  call void @llvm.lifetime.start.p0(i64 8, ptr %19) #3
  store ptr null, ptr %19, align 8, !tbaa !101
  %22 = getelementptr inbounds nuw %class.Jipopt, ptr %21, i32 0, i32 1
  %23 = load ptr, ptr %22, align 8, !tbaa !16
  %24 = load i32, ptr %10, align 4, !tbaa !12
  %25 = call noundef ptr @_ZN7JNIEnv_14NewDoubleArrayEi(ptr noundef nonnull align 8 dereferenceable(8) %23, i32 noundef %24)
  store ptr %25, ptr %16, align 8, !tbaa !101
  %26 = getelementptr inbounds nuw %class.Jipopt, ptr %21, i32 0, i32 1
  %27 = load ptr, ptr %26, align 8, !tbaa !16
  %28 = load i32, ptr %10, align 4, !tbaa !12
  %29 = call noundef ptr @_ZN7JNIEnv_14NewDoubleArrayEi(ptr noundef nonnull align 8 dereferenceable(8) %27, i32 noundef %28)
  store ptr %29, ptr %17, align 8, !tbaa !101
  %30 = getelementptr inbounds nuw %class.Jipopt, ptr %21, i32 0, i32 1
  %31 = load ptr, ptr %30, align 8, !tbaa !16
  %32 = load i32, ptr %13, align 4, !tbaa !12
  %33 = call noundef ptr @_ZN7JNIEnv_14NewDoubleArrayEi(ptr noundef nonnull align 8 dereferenceable(8) %31, i32 noundef %32)
  store ptr %33, ptr %18, align 8, !tbaa !101
  %34 = getelementptr inbounds nuw %class.Jipopt, ptr %21, i32 0, i32 1
  %35 = load ptr, ptr %34, align 8, !tbaa !16
  %36 = load i32, ptr %13, align 4, !tbaa !12
  %37 = call noundef ptr @_ZN7JNIEnv_14NewDoubleArrayEi(ptr noundef nonnull align 8 dereferenceable(8) %35, i32 noundef %36)
  store ptr %37, ptr %19, align 8, !tbaa !101
  %38 = getelementptr inbounds nuw %class.Jipopt, ptr %21, i32 0, i32 1
  %39 = load ptr, ptr %38, align 8, !tbaa !16
  %40 = getelementptr inbounds nuw %class.Jipopt, ptr %21, i32 0, i32 2
  %41 = load ptr, ptr %40, align 8, !tbaa !24
  %42 = getelementptr inbounds nuw %class.Jipopt, ptr %21, i32 0, i32 20
  %43 = load ptr, ptr %42, align 8, !tbaa !43
  %44 = load i32, ptr %10, align 4, !tbaa !12
  %45 = load ptr, ptr %16, align 8, !tbaa !101
  %46 = load ptr, ptr %17, align 8, !tbaa !101
  %47 = load i32, ptr %13, align 4, !tbaa !12
  %48 = load ptr, ptr %18, align 8, !tbaa !101
  %49 = load ptr, ptr %19, align 8, !tbaa !101
  %50 = call noundef zeroext i8 (ptr, ptr, ptr, ...) @_ZN7JNIEnv_17CallBooleanMethodEP8_jobjectP10_jmethodIDz(ptr noundef nonnull align 8 dereferenceable(8) %39, ptr noundef %41, ptr noundef %43, i32 noundef %44, ptr noundef %45, ptr noundef %46, i32 noundef %47, ptr noundef %48, ptr noundef %49)
  %51 = icmp ne i8 %50, 0
  br i1 %51, label %53, label %52

52:                                               ; preds = %7
  store i1 false, ptr %8, align 1
  store i32 1, ptr %20, align 4
  br label %74

53:                                               ; preds = %7
  %54 = getelementptr inbounds nuw %class.Jipopt, ptr %21, i32 0, i32 1
  %55 = load ptr, ptr %54, align 8, !tbaa !16
  %56 = load ptr, ptr %16, align 8, !tbaa !101
  %57 = load i32, ptr %10, align 4, !tbaa !12
  %58 = load ptr, ptr %11, align 8, !tbaa !99
  call void @_ZN7JNIEnv_20GetDoubleArrayRegionEP13_jdoubleArrayiiPd(ptr noundef nonnull align 8 dereferenceable(8) %55, ptr noundef %56, i32 noundef 0, i32 noundef %57, ptr noundef %58)
  %59 = getelementptr inbounds nuw %class.Jipopt, ptr %21, i32 0, i32 1
  %60 = load ptr, ptr %59, align 8, !tbaa !16
  %61 = load ptr, ptr %17, align 8, !tbaa !101
  %62 = load i32, ptr %10, align 4, !tbaa !12
  %63 = load ptr, ptr %12, align 8, !tbaa !99
  call void @_ZN7JNIEnv_20GetDoubleArrayRegionEP13_jdoubleArrayiiPd(ptr noundef nonnull align 8 dereferenceable(8) %60, ptr noundef %61, i32 noundef 0, i32 noundef %62, ptr noundef %63)
  %64 = getelementptr inbounds nuw %class.Jipopt, ptr %21, i32 0, i32 1
  %65 = load ptr, ptr %64, align 8, !tbaa !16
  %66 = load ptr, ptr %18, align 8, !tbaa !101
  %67 = load i32, ptr %13, align 4, !tbaa !12
  %68 = load ptr, ptr %14, align 8, !tbaa !99
  call void @_ZN7JNIEnv_20GetDoubleArrayRegionEP13_jdoubleArrayiiPd(ptr noundef nonnull align 8 dereferenceable(8) %65, ptr noundef %66, i32 noundef 0, i32 noundef %67, ptr noundef %68)
  %69 = getelementptr inbounds nuw %class.Jipopt, ptr %21, i32 0, i32 1
  %70 = load ptr, ptr %69, align 8, !tbaa !16
  %71 = load ptr, ptr %19, align 8, !tbaa !101
  %72 = load i32, ptr %13, align 4, !tbaa !12
  %73 = load ptr, ptr %15, align 8, !tbaa !99
  call void @_ZN7JNIEnv_20GetDoubleArrayRegionEP13_jdoubleArrayiiPd(ptr noundef nonnull align 8 dereferenceable(8) %70, ptr noundef %71, i32 noundef 0, i32 noundef %72, ptr noundef %73)
  store i1 true, ptr %8, align 1
  store i32 1, ptr %20, align 4
  br label %74

74:                                               ; preds = %53, %52
  call void @llvm.lifetime.end.p0(i64 8, ptr %19) #3
  call void @llvm.lifetime.end.p0(i64 8, ptr %18) #3
  call void @llvm.lifetime.end.p0(i64 8, ptr %17) #3
  call void @llvm.lifetime.end.p0(i64 8, ptr %16) #3
  %75 = load i1, ptr %8, align 1
  ret i1 %75
}