; Function Attrs: mustprogress uwtable
define noundef zeroext i1 @_ZN6Jipopt15get_bounds_infoEiPdS0_iS0_S0_(ptr noundef nonnull readonly align 8 captures(none) dereferenceable(232) %0, i32 noundef %1, ptr noundef %2, ptr noundef %3, i32 noundef %4, ptr noundef %5, ptr noundef %6) unnamed_addr #3 align 2 {
  %8 = getelementptr inbounds nuw i8, ptr %0, i64 16
  %9 = load ptr, ptr %8, align 8, !tbaa !10
  %10 = load ptr, ptr %9, align 8, !tbaa !48
  %11 = getelementptr inbounds nuw i8, ptr %10, i64 1456
  %12 = load ptr, ptr %11, align 8, !tbaa !91
  %13 = tail call noundef ptr %12(ptr noundef nonnull align 8 dereferenceable(8) %9, i32 noundef %1)
  %14 = load ptr, ptr %8, align 8, !tbaa !10
  %15 = load ptr, ptr %14, align 8, !tbaa !48
  %16 = getelementptr inbounds nuw i8, ptr %15, i64 1456
  %17 = load ptr, ptr %16, align 8, !tbaa !91
  %18 = tail call noundef ptr %17(ptr noundef nonnull align 8 dereferenceable(8) %14, i32 noundef %1)
  %19 = load ptr, ptr %8, align 8, !tbaa !10
  %20 = load ptr, ptr %19, align 8, !tbaa !48
  %21 = getelementptr inbounds nuw i8, ptr %20, i64 1456
  %22 = load ptr, ptr %21, align 8, !tbaa !91
  %23 = tail call noundef ptr %22(ptr noundef nonnull align 8 dereferenceable(8) %19, i32 noundef %4)
  %24 = load ptr, ptr %8, align 8, !tbaa !10
  %25 = load ptr, ptr %24, align 8, !tbaa !48
  %26 = getelementptr inbounds nuw i8, ptr %25, i64 1456
  %27 = load ptr, ptr %26, align 8, !tbaa !91
  %28 = tail call noundef ptr %27(ptr noundef nonnull align 8 dereferenceable(8) %24, i32 noundef %4)
  %29 = load ptr, ptr %8, align 8, !tbaa !10
  %30 = getelementptr inbounds nuw i8, ptr %0, i64 24
  %31 = load ptr, ptr %30, align 8, !tbaa !20
  %32 = getelementptr inbounds nuw i8, ptr %0, i64 144
  %33 = load ptr, ptr %32, align 8, !tbaa !54
  %34 = tail call noundef zeroext i8 (ptr, ptr, ptr, ...) @_ZN7JNIEnv_17CallBooleanMethodEP8_jobjectP10_jmethodIDz(ptr noundef nonnull align 8 dereferenceable(8) %29, ptr noundef %31, ptr noundef %33, i32 noundef %1, ptr noundef %13, ptr noundef %18, i32 noundef %4, ptr noundef %23, ptr noundef %28)
  %.not = icmp ne i8 %34, 0
  br i1 %.not, label %35, label %52

35:                                               ; preds = %7
  %36 = load ptr, ptr %8, align 8, !tbaa !10
  %37 = load ptr, ptr %36, align 8, !tbaa !48
  %38 = getelementptr inbounds nuw i8, ptr %37, i64 1648
  %39 = load ptr, ptr %38, align 8, !tbaa !92
  tail call void %39(ptr noundef nonnull align 8 dereferenceable(8) %36, ptr noundef %13, i32 noundef 0, i32 noundef %1, ptr noundef %2)
  %40 = load ptr, ptr %8, align 8, !tbaa !10
  %41 = load ptr, ptr %40, align 8, !tbaa !48
  %42 = getelementptr inbounds nuw i8, ptr %41, i64 1648
  %43 = load ptr, ptr %42, align 8, !tbaa !92
  tail call void %43(ptr noundef nonnull align 8 dereferenceable(8) %40, ptr noundef %18, i32 noundef 0, i32 noundef %1, ptr noundef %3)
  %44 = load ptr, ptr %8, align 8, !tbaa !10
  %45 = load ptr, ptr %44, align 8, !tbaa !48
  %46 = getelementptr inbounds nuw i8, ptr %45, i64 1648
  %47 = load ptr, ptr %46, align 8, !tbaa !92
  tail call void %47(ptr noundef nonnull align 8 dereferenceable(8) %44, ptr noundef %23, i32 noundef 0, i32 noundef %4, ptr noundef %5)
  %48 = load ptr, ptr %8, align 8, !tbaa !10
  %49 = load ptr, ptr %48, align 8, !tbaa !48
  %50 = getelementptr inbounds nuw i8, ptr %49, i64 1648
  %51 = load ptr, ptr %50, align 8, !tbaa !92
  tail call void %51(ptr noundef nonnull align 8 dereferenceable(8) %48, ptr noundef %28, i32 noundef 0, i32 noundef %4, ptr noundef %6)
  br label %52

52:                                               ; preds = %7, %35
  ret i1 %.not
}